target datalayout = "e-m:e-p270:32:32-p271:32:32-p272:64:64-i64:64-i128:128-f80:128-n8:16:32:64-S128"
target triple = "x86_64-pc-linux-gnu"

%struct.UserDefinedPropertyValue = type { i32, ptr }

@UserDefinedPropertyNum = internal global i32 0, align 4
@UserDefinedPropertyRanges = internal global [20 x %struct.UserDefinedPropertyValue] zeroinitializer, align 16

; Function Attrs: nounwind uwtable
define dso_local i32 @onigenc_unicode_is_code_ctype(i32 noundef %0, i32 noundef %1) #0 {
  %3 = alloca i32, align 4
  %4 = alloca i32, align 4
  %5 = alloca i32, align 4
  %6 = alloca i32, align 4
  %7 = alloca i32, align 4
  store i32 %0, ptr %4, align 4, !tbaa !9
  store i32 %1, ptr %5, align 4, !tbaa !9
  %8 = load i32, ptr %5, align 4, !tbaa !9
  %9 = icmp ule i32 %8, 14
  br i1 %9, label %10, label %24

10:                                               ; preds = %2
  %11 = load i32, ptr %4, align 4, !tbaa !9
  %12 = icmp ult i32 %11, 256
  br i1 %12, label %13, label %24

13:                                               ; preds = %10
  %14 = load i32, ptr %4, align 4, !tbaa !9
  %15 = zext i32 %14 to i64
  %16 = getelementptr inbounds nuw [256 x i16], ptr @EncUNICODE_ISO_8859_1_CtypeTable, i64 0, i64 %15
  %17 = load i16, ptr %16, align 2, !tbaa !78
  %18 = zext i16 %17 to i32
  %19 = load i32, ptr %5, align 4, !tbaa !9
  %20 = shl i32 1, %19
  %21 = and i32 %18, %20
  %22 = icmp ne i32 %21, 0
  %23 = zext i1 %22 to i32
  store i32 %23, ptr %3, align 4
  br label %50

24:                                               ; preds = %10, %2
  %25 = load i32, ptr %5, align 4, !tbaa !9
  %26 = icmp uge i32 %25, 606
  br i1 %26, label %27, label %43

27:                                               ; preds = %24
  call void @llvm.lifetime.start.p0(i64 4, ptr %6) #7
  %28 = load i32, ptr %5, align 4, !tbaa !9
  %29 = sub i32 %28, 606
  store i32 %29, ptr %6, align 4, !tbaa !9
  %30 = load i32, ptr %6, align 4, !tbaa !9
  %31 = load i32, ptr @UserDefinedPropertyNum, align 4, !tbaa !9
  %32 = icmp slt i32 %30, %31
  br i1 %32, label %33, label %41

33:                                               ; preds = %27
  %34 = load i32, ptr %6, align 4, !tbaa !9
  %35 = sext i32 %34 to i64
  %36 = getelementptr inbounds [20 x %struct.UserDefinedPropertyValue], ptr @UserDefinedPropertyRanges, i64 0, i64 %35
  %37 = getelementptr inbounds nuw %struct.UserDefinedPropertyValue, ptr %36, i32 0, i32 1
  %38 = load ptr, ptr %37, align 8, !tbaa !79
  %39 = load i32, ptr %4, align 4, !tbaa !9
  %40 = call i32 @onig_is_in_code_range(ptr noundef %38, i32 noundef %39)
  store i32 %40, ptr %3, align 4
  store i32 1, ptr %7, align 4
  br label %42

41:                                               ; preds = %27
  store i32 -6, ptr %3, align 4
  store i32 1, ptr %7, align 4
  br label %42

42:                                               ; preds = %41, %33
  call void @llvm.lifetime.end.p0(i64 4, ptr %6) #7
  br label %50

43:                                               ; preds = %24
  %44 = load i32, ptr %5, align 4, !tbaa !9
  %45 = zext i32 %44 to i64
  %46 = getelementptr inbounds nuw [606 x ptr], ptr @CodeRanges, i64 0, i64 %45
  %47 = load ptr, ptr %46, align 8, !tbaa !25
  %48 = load i32, ptr %4, align 4, !tbaa !9
  %49 = call i32 @onig_is_in_code_range(ptr noundef %47, i32 noundef %48)
  store i32 %49, ptr %3, align 4
  br label %50

50:                                               ; preds = %43, %42, %13
  %51 = load i32, ptr %3, align 4
  ret i32 %51
}