; Function Attrs: nounwind uwtable
define dso_local i32 @onigenc_unicode_is_code_ctype(i32 noundef %0, i32 noundef %1) local_unnamed_addr #0 {
  %3 = icmp ult i32 %1, 15
  %4 = icmp ult i32 %0, 256
  %or.cond = and i1 %4, %3
  br i1 %or.cond, label %5, label %12

5:                                                ; preds = %2
  %6 = zext nneg i32 %0 to i64
  %7 = getelementptr inbounds nuw [256 x i16], ptr @EncUNICODE_ISO_8859_1_CtypeTable, i64 0, i64 %6
  %8 = load i16, ptr %7, align 2, !tbaa !60
  %9 = zext i16 %8 to i32
  %10 = lshr i32 %9, %1
  %11 = and i32 %10, 1
  br label %28

12:                                               ; preds = %2
  %13 = icmp ugt i32 %1, 605
  br i1 %13, label %14, label %23

14:                                               ; preds = %12
  %15 = add i32 %1, -606
  %16 = load i32, ptr @UserDefinedPropertyNum, align 4, !tbaa !17
  %17 = icmp slt i32 %15, %16
  br i1 %17, label %18, label %28

18:                                               ; preds = %14
  %19 = sext i32 %15 to i64
  %20 = getelementptr inbounds [20 x %struct.UserDefinedPropertyValue], ptr @UserDefinedPropertyRanges, i64 0, i64 %19, i32 1
  %21 = load ptr, ptr %20, align 8, !tbaa !61
  %22 = tail call i32 @onig_is_in_code_range(ptr noundef %21, i32 noundef %0) #10
  br label %28

23:                                               ; preds = %12
  %24 = zext nneg i32 %1 to i64
  %25 = getelementptr inbounds nuw [606 x ptr], ptr @CodeRanges, i64 0, i64 %24
  %26 = load ptr, ptr %25, align 8, !tbaa !64
  %27 = tail call i32 @onig_is_in_code_range(ptr noundef %26, i32 noundef %0) #10
  br label %28

28:                                               ; preds = %18, %14, %23, %5
  %.0 = phi i32 [ %11, %5 ], [ %27, %23 ], [ %22, %18 ], [ -6, %14 ]
  ret i32 %.0
}